target datalayout = "e-m:e-p270:32:32-p271:32:32-p272:64:64-i64:64-i128:128-f80:128-n8:16:32:64-S128"
target triple = "x86_64-pc-linux-gnu"

; Function Attrs: nounwind uwtable
define dso_local i32 @decimal_width(i64 noundef %0) #0 {
  %2 = alloca i64, align 8
  %3 = alloca i32, align 4
  store i64 %0, ptr %2, align 8, !tbaa !35
  call void @llvm.lifetime.start.p0(i64 4, ptr %3) #8
  store i32 1, ptr %3, align 4, !tbaa !4
  br label %4

4:                                                ; preds = %10, %1
  %5 = load i64, ptr %2, align 8, !tbaa !35
  %6 = icmp uge i64 %5, 10
  br i1 %6, label %7, label %13

7:                                                ; preds = %4
  %8 = load i64, ptr %2, align 8, !tbaa !35
  %9 = udiv i64 %8, 10
  store i64 %9, ptr %2, align 8, !tbaa !35
  br label %10

10:                                               ; preds = %7
  %11 = load i32, ptr %3, align 4, !tbaa !4
  %12 = add nsw i32 %11, 1
  store i32 %12, ptr %3, align 4, !tbaa !4
  br label %4, !llvm.loop !36

13:                                               ; preds = %4
  %14 = load i32, ptr %3, align 4, !tbaa !4
  call void @llvm.lifetime.end.p0(i64 4, ptr %3) #8
  ret i32 %14
}