; Function Attrs: nofree norecurse nosync nounwind memory(none) uwtable
define dso_local range(i32 1, 0) i32 @decimal_width(i64 noundef %0) local_unnamed_addr #8 {
  %2 = icmp ugt i64 %0, 9
  br i1 %2, label %.lr.ph, label %._crit_edge

.lr.ph:                                           ; preds = %1, %.lr.ph
  %.06 = phi i32 [ %4, %.lr.ph ], [ 1, %1 ]
  %.045 = phi i64 [ %3, %.lr.ph ], [ %0, %1 ]
  %3 = udiv i64 %.045, 10
  %4 = add nuw nsw i32 %.06, 1
  %5 = icmp ugt i64 %.045, 99
  br i1 %5, label %.lr.ph, label %._crit_edge, !llvm.loop !23

._crit_edge:                                      ; preds = %.lr.ph, %1
  %.0.lcssa = phi i32 [ 1, %1 ], [ %4, %.lr.ph ]
  ret i32 %.0.lcssa
}